target datalayout = "e-m:e-p270:32:32-p271:32:32-p272:64:64-i64:64-i128:128-f80:128-n8:16:32:64-S128"
target triple = "x86_64-pc-linux-gnu"

%struct._protocol = type { ptr, ptr, ptr, ptr, i32, i8, i8, i8, i32, ptr }

@.str.1 = private unnamed_addr constant [13 x i8] c"epan/proto.c\00", align 1
@.str.62 = private unnamed_addr constant [29 x i8] c"%s:%u: failed assertion \22%s\22\00", align 1
@.str.120 = private unnamed_addr constant [21 x i8] c"protocol->can_toggle\00", align 1
@.str.121 = private unnamed_addr constant [29 x i8] c"proto_is_pino(protocol) == 0\00", align 1

; Function Attrs: nounwind null_pointer_is_valid sspstrong uwtable
define zeroext i1 @proto_is_pino(ptr noundef %0) #3 {
  %2 = alloca ptr, align 8
  store ptr %0, ptr %2, align 8
  %3 = load ptr, ptr %2, align 8
  %4 = getelementptr inbounds nuw %struct._protocol, ptr %3, i32 0, i32 8
  %5 = load i32, ptr %4, align 8
  %6 = icmp ne i32 %5, -1
  ret i1 %6
}

; Function Attrs: null_pointer_is_valid sspstrong uwtable
define void @proto_set_decoding(i32 noundef %0, i1 noundef zeroext %1) #0 {
  %3 = alloca i32, align 4
  %4 = alloca i8, align 1
  %5 = alloca ptr, align 8
  store i32 %0, ptr %3, align 4
  %6 = zext i1 %1 to i8
  store i8 %6, ptr %4, align 1
  call void @llvm.lifetime.start.p0(i64 8, ptr %5) #24
  %7 = load i32, ptr %3, align 4
  %8 = call ptr @find_protocol_by_id(i32 noundef %7)
  store ptr %8, ptr %5, align 8
  %9 = load ptr, ptr %5, align 8
  %10 = getelementptr inbounds nuw %struct._protocol, ptr %9, i32 0, i32 7
  %11 = load i8, ptr %10, align 2, !range !10, !noundef !11
  %12 = trunc i8 %11 to i1
  br i1 %12, label %13, label %14

13:                                               ; preds = %2
  br label %16

14:                                               ; preds = %2
  call void (ptr, ...) @proto_report_dissector_bug(ptr noundef @.str.62, ptr noundef @.str.1, i32 noundef 8752, ptr noundef @.str.120) #27
  unreachable

15:                                               ; No predecessors!
  br label %16

16:                                               ; preds = %15, %13
  %17 = load ptr, ptr %5, align 8
  %18 = call zeroext i1 @proto_is_pino(ptr noundef %17)
  %19 = zext i1 %18 to i32
  %20 = icmp eq i32 %19, 0
  br i1 %20, label %21, label %22

21:                                               ; preds = %16
  br label %24

22:                                               ; preds = %16
  call void (ptr, ...) @proto_report_dissector_bug(ptr noundef @.str.62, ptr noundef @.str.1, i32 noundef 8753, ptr noundef @.str.121) #27
  unreachable

23:                                               ; No predecessors!
  br label %24

24:                                               ; preds = %23, %21
  %25 = load i8, ptr %4, align 1, !range !10, !noundef !11
  %26 = trunc i8 %25 to i1
  %27 = load ptr, ptr %5, align 8
  %28 = getelementptr inbounds nuw %struct._protocol, ptr %27, i32 0, i32 5
  %29 = zext i1 %26 to i8
  store i8 %29, ptr %28, align 4
  call void @llvm.lifetime.end.p0(i64 8, ptr %5) #24
  ret void
}