; Function Attrs: null_pointer_is_valid sspstrong uwtable
define void @proto_set_decoding(i32 noundef %0, i1 noundef zeroext %1) local_unnamed_addr #0 {
  %3 = tail call ptr @find_protocol_by_id(i32 noundef %0)
  %4 = getelementptr inbounds nuw i8, ptr %3, i64 38
  %5 = load i8, ptr %4, align 2, !range !10, !noundef !11
  %6 = trunc nuw i8 %5 to i1
  br i1 %6, label %8, label %7

7:                                                ; preds = %2
  tail call void (ptr, ...) @proto_report_dissector_bug(ptr noundef nonnull @.str.62, ptr noundef nonnull @.str.1, i32 noundef 8752, ptr noundef nonnull @.str.120) #37
  unreachable

8:                                                ; preds = %2
  %9 = getelementptr inbounds nuw i8, ptr %3, i64 40
  %10 = load i32, ptr %9, align 8
  %.not = icmp eq i32 %10, -1
  br i1 %.not, label %12, label %11

11:                                               ; preds = %8
  tail call void (ptr, ...) @proto_report_dissector_bug(ptr noundef nonnull @.str.62, ptr noundef nonnull @.str.1, i32 noundef 8753, ptr noundef nonnull @.str.121) #37
  unreachable

12:                                               ; preds = %8
  %13 = zext i1 %1 to i8
  %14 = getelementptr inbounds nuw i8, ptr %3, i64 36
  store i8 %13, ptr %14, align 4
  ret void
}